target datalayout = "e-m:e-p270:32:32-p271:32:32-p272:64:64-i64:64-i128:128-f80:128-n8:16:32:64-S128"
target triple = "x86_64-pc-linux-gnu"

%struct.client_response = type { ptr }

@plugin_type = external constant [0 x i8], align 1
@.str.64 = private unnamed_addr constant [8 x i8] c"service\00", align 1
@.str.67 = private unnamed_addr constant [3 x i8] c"ok\00", align 1
@.str.68 = private unnamed_addr constant [5 x i8] c"fail\00", align 1
@.str.70 = private unnamed_addr constant [44 x i8] c"%s: %s: mpi/pmi2: in _handle_unpublish_name\00", align 1
@__func__._handle_unpublish_name = private unnamed_addr constant [23 x i8] c"_handle_unpublish_name\00", align 1
@.str.71 = private unnamed_addr constant [30 x i8] c"cmd=unpublish_result info=%s\0A\00", align 1
@.str.72 = private unnamed_addr constant [45 x i8] c"%s: %s: mpi/pmi2: out _handle_unpublish_name\00", align 1

; Function Attrs: nounwind uwtable
define internal i32 @_handle_unpublish_name(i32 noundef %0, i32 noundef %1, ptr noundef %2) #0 {
  %4 = alloca i32, align 4
  %5 = alloca i32, align 4
  %6 = alloca ptr, align 8
  %7 = alloca i32, align 4
  %8 = alloca ptr, align 8
  %9 = alloca ptr, align 8
  store i32 %0, ptr %4, align 4
  store i32 %1, ptr %5, align 4
  store ptr %2, ptr %6, align 8
  call void @llvm.lifetime.start.p0(i64 4, ptr %7) #6
  call void @llvm.lifetime.start.p0(i64 8, ptr %8) #6
  call void @llvm.lifetime.start.p0(i64 8, ptr %9) #6
  store ptr null, ptr %9, align 8
  br label %10

10:                                               ; preds = %3
  br label %11

11:                                               ; preds = %10
  %12 = call i32 @slurm_get_log_level()
  %13 = icmp sge i32 %12, 7
  br i1 %13, label %14, label %15

14:                                               ; preds = %11
  call void (i32, ptr, ...) @slurm_log_var(i32 noundef 7, ptr noundef @.str.70, ptr noundef @plugin_type, ptr noundef @__func__._handle_unpublish_name)
  br label %15

15:                                               ; preds = %14, %11
  br label %16

16:                                               ; preds = %15
  br label %17

17:                                               ; preds = %16
  br label %18

18:                                               ; preds = %17
  br label %19

19:                                               ; preds = %18
  %20 = load ptr, ptr %6, align 8
  %21 = call i32 @client_req_parse_body(ptr noundef %20)
  %22 = load ptr, ptr %6, align 8
  %23 = call zeroext i1 @client_req_get_str(ptr noundef %22, ptr noundef @.str.64, ptr noundef %9)
  %24 = load ptr, ptr %9, align 8
  %25 = call i32 @name_unpublish_up(ptr noundef %24)
  store i32 %25, ptr %7, align 4
  call void @slurm_xfree(ptr noundef %9)
  %26 = call ptr @client_resp_new()
  store ptr %26, ptr %8, align 8
  br label %27

27:                                               ; preds = %19
  %28 = load ptr, ptr %8, align 8
  %29 = getelementptr inbounds nuw %struct.client_response, ptr %28, i32 0, i32 0
  %30 = load i32, ptr %7, align 4
  %31 = icmp eq i32 %30, 0
  %32 = select i1 %31, ptr @.str.67, ptr @.str.68
  call void (ptr, ptr, ...) @slurm_xstrfmtcat(ptr noundef %29, ptr noundef @.str.71, ptr noundef %32)
  br label %33

33:                                               ; preds = %27
  br label %34

34:                                               ; preds = %33
  %35 = load ptr, ptr %8, align 8
  %36 = load i32, ptr %4, align 4
  %37 = call i32 @client_resp_send(ptr noundef %35, i32 noundef %36)
  store i32 %37, ptr %7, align 4
  %38 = load ptr, ptr %8, align 8
  call void @client_resp_free(ptr noundef %38)
  br label %39

39:                                               ; preds = %34
  br label %40

40:                                               ; preds = %39
  %41 = call i32 @slurm_get_log_level()
  %42 = icmp sge i32 %41, 7
  br i1 %42, label %43, label %44

43:                                               ; preds = %40
  call void (i32, ptr, ...) @slurm_log_var(i32 noundef 7, ptr noundef @.str.72, ptr noundef @plugin_type, ptr noundef @__func__._handle_unpublish_name)
  br label %44

44:                                               ; preds = %43, %40
  br label %45

45:                                               ; preds = %44
  br label %46

46:                                               ; preds = %45
  br label %47

47:                                               ; preds = %46
  br label %48

48:                                               ; preds = %47
  %49 = load i32, ptr %7, align 4
  call void @llvm.lifetime.end.p0(i64 8, ptr %9) #6
  call void @llvm.lifetime.end.p0(i64 8, ptr %8) #6
  call void @llvm.lifetime.end.p0(i64 4, ptr %7) #6
  ret i32 %49
}