; Function Attrs: nounwind uwtable
define internal i32 @_handle_unpublish_name(i32 noundef %0, i32 %1, ptr noundef %2) #0 {
  %4 = alloca ptr, align 8
  call void @llvm.lifetime.start.p0(i64 8, ptr nonnull %4) #8
  store ptr null, ptr %4, align 8
  %5 = tail call i32 @slurm_get_log_level() #8
  %6 = icmp sgt i32 %5, 6
  br i1 %6, label %7, label %8

7:                                                ; preds = %3
  tail call void (i32, ptr, ...) @slurm_log_var(i32 noundef 7, ptr noundef nonnull @.str.70, ptr noundef nonnull @plugin_type, ptr noundef nonnull @__func__._handle_unpublish_name) #8
  br label %8

8:                                                ; preds = %7, %3
  %9 = tail call i32 @client_req_parse_body(ptr noundef %2) #8
  %10 = call zeroext i1 @client_req_get_str(ptr noundef %2, ptr noundef nonnull @.str.64, ptr noundef nonnull %4) #8
  %11 = load ptr, ptr %4, align 8
  %12 = call i32 @name_unpublish_up(ptr noundef %11) #8
  call void @slurm_xfree(ptr noundef nonnull %4) #8
  %13 = call ptr @client_resp_new() #8
  %14 = icmp eq i32 %12, 0
  %15 = select i1 %14, ptr @.str.67, ptr @.str.68
  call void (ptr, ptr, ...) @slurm_xstrfmtcat(ptr noundef %13, ptr noundef nonnull @.str.71, ptr noundef nonnull %15) #8
  %16 = call i32 @client_resp_send(ptr noundef %13, i32 noundef %0) #8
  call void @client_resp_free(ptr noundef %13) #8
  %17 = call i32 @slurm_get_log_level() #8
  %18 = icmp sgt i32 %17, 6
  br i1 %18, label %19, label %20

19:                                               ; preds = %8
  call void (i32, ptr, ...) @slurm_log_var(i32 noundef 7, ptr noundef nonnull @.str.72, ptr noundef nonnull @plugin_type, ptr noundef nonnull @__func__._handle_unpublish_name) #8
  br label %20

20:                                               ; preds = %19, %8
  call void @llvm.lifetime.end.p0(i64 8, ptr nonnull %4) #8
  ret i32 %16
}